target datalayout = "e-m:e-p270:32:32-p271:32:32-p272:64:64-i64:64-i128:128-f80:128-n8:16:32:64-S128"
target triple = "x86_64-pc-linux-gnu"

; Function Attrs: null_pointer_is_valid sspstrong uwtable
define internal void @encrypt_block(ptr noundef %0, ptr noundef %1, ptr noundef %2) #0 {
  %4 = alloca ptr, align 8
  %5 = alloca ptr, align 8
  %6 = alloca ptr, align 8
  %7 = alloca ptr, align 8
  store ptr %0, ptr %4, align 8
  store ptr %1, ptr %5, align 8
  store ptr %2, ptr %6, align 8
  call void @llvm.lifetime.start.p0(i64 8, ptr %7) #10
  store ptr null, ptr %7, align 8
  %8 = call i32 @gcry_cipher_open(ptr noundef %7, i32 noundef 7, i32 noundef 3, i32 noundef 0)
  %9 = load ptr, ptr %7, align 8
  %10 = load ptr, ptr %4, align 8
  %11 = call i32 @gcry_cipher_setkey(ptr noundef %9, ptr noundef %10, i64 noundef 16)
  %12 = load ptr, ptr %7, align 8
  %13 = load ptr, ptr %6, align 8
  %14 = load ptr, ptr %5, align 8
  %15 = call i32 @gcry_cipher_encrypt(ptr noundef %12, ptr noundef %13, i64 noundef 16, ptr noundef %14, i64 noundef 16)
  %16 = load ptr, ptr %7, align 8
  call void @gcry_cipher_close(ptr noundef %16)
  call void @llvm.lifetime.end.p0(i64 8, ptr %7) #10
  ret void
}

; Function Attrs: alwaysinline nounwind
define internal ptr @memcpy.inline(ptr noalias %0, ptr noalias %1, i64 %2) #2 {
  %4 = alloca ptr, align 8
  %5 = alloca ptr, align 8
  %6 = alloca i64, align 8
  store ptr %0, ptr %4, align 8
  store ptr %1, ptr %5, align 8
  store i64 %2, ptr %6, align 8
  %7 = load ptr, ptr %4, align 8
  %8 = load ptr, ptr %5, align 8
  %9 = load i64, ptr %6, align 8
  %10 = load ptr, ptr %4, align 8
  %11 = call i64 @llvm.objectsize.i64.p0(ptr %10, i1 false, i1 true, i1 true)
  %12 = call ptr @__memcpy_chk(ptr noundef %7, ptr noundef %8, i64 noundef %9, i64 noundef %11) #10
  ret ptr %12
}

; Function Attrs: null_pointer_is_valid sspstrong uwtable
define hidden void @knx_ccm_calc_cbc_mac(ptr noundef %0, ptr noundef %1, ptr noundef %2, i32 noundef %3, ptr noundef %4, i32 noundef %5, ptr noundef %6) #0 {
  %8 = alloca ptr, align 8
  %9 = alloca ptr, align 8
  %10 = alloca ptr, align 8
  %11 = alloca i32, align 4
  %12 = alloca ptr, align 8
  %13 = alloca i32, align 4
  %14 = alloca ptr, align 8
  %15 = alloca [16 x i8], align 16
  %16 = alloca i8, align 1
  store ptr %0, ptr %8, align 8
  store ptr %1, ptr %9, align 8
  store ptr %2, ptr %10, align 8
  store i32 %3, ptr %11, align 4
  store ptr %4, ptr %12, align 8
  store i32 %5, ptr %13, align 4
  store ptr %6, ptr %14, align 8
  call void @llvm.lifetime.start.p0(i64 16, ptr %15) #10
  call void @llvm.lifetime.start.p0(i64 1, ptr %16) #10
  %17 = getelementptr inbounds [16 x i8], ptr %15, i64 0, i64 0
  %18 = load ptr, ptr %14, align 8
  %19 = call ptr @memcpy.inline(ptr noundef %17, ptr noundef %18, i64 noundef 16) #10
  %20 = load ptr, ptr %9, align 8
  %21 = getelementptr inbounds [16 x i8], ptr %15, i64 0, i64 0
  %22 = load ptr, ptr %8, align 8
  call void @encrypt_block(ptr noundef %20, ptr noundef %21, ptr noundef %22)
  %23 = load i32, ptr %11, align 4
  %24 = ashr i32 %23, 8
  %25 = load ptr, ptr %8, align 8
  %26 = getelementptr i8, ptr %25, i64 0
  %27 = load i8, ptr %26, align 1
  %28 = zext i8 %27 to i32
  %29 = xor i32 %24, %28
  %30 = trunc i32 %29 to i8
  %31 = getelementptr [16 x i8], ptr %15, i64 0, i64 0
  store i8 %30, ptr %31, align 16
  %32 = load i32, ptr %11, align 4
  %33 = and i32 %32, 255
  %34 = load ptr, ptr %8, align 8
  %35 = getelementptr i8, ptr %34, i64 1
  %36 = load i8, ptr %35, align 1
  %37 = zext i8 %36 to i32
  %38 = xor i32 %33, %37
  %39 = trunc i32 %38 to i8
  %40 = getelementptr [16 x i8], ptr %15, i64 0, i64 1
  store i8 %39, ptr %40, align 1
  store i8 2, ptr %16, align 1
  br label %41

41:                                               ; preds = %125, %7
  %42 = load i32, ptr %11, align 4
  %43 = icmp ne i32 %42, 0
  br i1 %43, label %47, label %44

44:                                               ; preds = %41
  %45 = load i32, ptr %13, align 4
  %46 = icmp ne i32 %45, 0
  br label %47

47:                                               ; preds = %44, %41
  %48 = phi i1 [ true, %41 ], [ %46, %44 ]
  br i1 %48, label %49, label %129

49:                                               ; preds = %47
  br label %50

50:                                               ; preds = %59, %49
  %51 = load i32, ptr %11, align 4
  %52 = icmp ne i32 %51, 0
  br i1 %52, label %53, label %57

53:                                               ; preds = %50
  %54 = load i8, ptr %16, align 1
  %55 = zext i8 %54 to i32
  %56 = icmp slt i32 %55, 16
  br label %57

57:                                               ; preds = %53, %50
  %58 = phi i1 [ false, %50 ], [ %56, %53 ]
  br i1 %58, label %59, label %79

59:                                               ; preds = %57
  %60 = load ptr, ptr %10, align 8
  %61 = getelementptr i8, ptr %60, i32 1
  store ptr %61, ptr %10, align 8
  %62 = load i8, ptr %60, align 1
  %63 = zext i8 %62 to i32
  %64 = load ptr, ptr %8, align 8
  %65 = load i8, ptr %16, align 1
  %66 = zext i8 %65 to i64
  %67 = getelementptr i8, ptr %64, i64 %66
  %68 = load i8, ptr %67, align 1
  %69 = zext i8 %68 to i32
  %70 = xor i32 %63, %69
  %71 = trunc i32 %70 to i8
  %72 = load i8, ptr %16, align 1
  %73 = zext i8 %72 to i64
  %74 = getelementptr [16 x i8], ptr %15, i64 0, i64 %73
  store i8 %71, ptr %74, align 1
  %75 = load i32, ptr %11, align 4
  %76 = add i32 %75, -1
  store i32 %76, ptr %11, align 4
  %77 = load i8, ptr %16, align 1
  %78 = add i8 %77, 1
  store i8 %78, ptr %16, align 1
  br label %50, !llvm.loop !6

79:                                               ; preds = %57
  br label %80

80:                                               ; preds = %89, %79
  %81 = load i32, ptr %13, align 4
  %82 = icmp ne i32 %81, 0
  br i1 %82, label %83, label %87

83:                                               ; preds = %80
  %84 = load i8, ptr %16, align 1
  %85 = zext i8 %84 to i32
  %86 = icmp slt i32 %85, 16
  br label %87

87:                                               ; preds = %83, %80
  %88 = phi i1 [ false, %80 ], [ %86, %83 ]
  br i1 %88, label %89, label %109

89:                                               ; preds = %87
  %90 = load ptr, ptr %12, align 8
  %91 = getelementptr i8, ptr %90, i32 1
  store ptr %91, ptr %12, align 8
  %92 = load i8, ptr %90, align 1
  %93 = zext i8 %92 to i32
  %94 = load ptr, ptr %8, align 8
  %95 = load i8, ptr %16, align 1
  %96 = zext i8 %95 to i64
  %97 = getelementptr i8, ptr %94, i64 %96
  %98 = load i8, ptr %97, align 1
  %99 = zext i8 %98 to i32
  %100 = xor i32 %93, %99
  %101 = trunc i32 %100 to i8
  %102 = load i8, ptr %16, align 1
  %103 = zext i8 %102 to i64
  %104 = getelementptr [16 x i8], ptr %15, i64 0, i64 %103
  store i8 %101, ptr %104, align 1
  %105 = load i32, ptr %13, align 4
  %106 = add i32 %105, -1
  store i32 %106, ptr %13, align 4
  %107 = load i8, ptr %16, align 1
  %108 = add i8 %107, 1
  store i8 %108, ptr %16, align 1
  br label %80, !llvm.loop !8

109:                                              ; preds = %87
  br label %110

110:                                              ; preds = %114, %109
  %111 = load i8, ptr %16, align 1
  %112 = zext i8 %111 to i32
  %113 = icmp slt i32 %112, 16
  br i1 %113, label %114, label %125

114:                                              ; preds = %110
  %115 = load ptr, ptr %8, align 8
  %116 = load i8, ptr %16, align 1
  %117 = zext i8 %116 to i64
  %118 = getelementptr i8, ptr %115, i64 %117
  %119 = load i8, ptr %118, align 1
  %120 = load i8, ptr %16, align 1
  %121 = zext i8 %120 to i64
  %122 = getelementptr [16 x i8], ptr %15, i64 0, i64 %121
  store i8 %119, ptr %122, align 1
  %123 = load i8, ptr %16, align 1
  %124 = add i8 %123, 1
  store i8 %124, ptr %16, align 1
  br label %110, !llvm.loop !9

125:                                              ; preds = %110
  %126 = load ptr, ptr %9, align 8
  %127 = getelementptr inbounds [16 x i8], ptr %15, i64 0, i64 0
  %128 = load ptr, ptr %8, align 8
  call void @encrypt_block(ptr noundef %126, ptr noundef %127, ptr noundef %128)
  store i8 0, ptr %16, align 1
  br label %41, !llvm.loop !10

129:                                              ; preds = %47
  call void @llvm.lifetime.end.p0(i64 1, ptr %16) #10
  call void @llvm.lifetime.end.p0(i64 16, ptr %15) #10
  ret void
}