; Function Attrs: null_pointer_is_valid sspstrong uwtable
define hidden void @knx_ccm_calc_cbc_mac(ptr noundef %0, ptr noundef %1, ptr noundef readonly captures(none) %2, i32 noundef %3, ptr noundef readonly captures(none) %4, i32 noundef %5, ptr noundef readonly captures(none) %6) local_unnamed_addr #0 {
  %8 = alloca ptr, align 8
  %9 = alloca ptr, align 8
  %10 = alloca [16 x i8], align 16
  call void @llvm.lifetime.start.p0(i64 16, ptr nonnull %10) #14
  call void @llvm.memcpy.p0.p0.i64(ptr noundef nonnull align 16 dereferenceable(16) %10, ptr noundef align 1 dereferenceable(16) %6, i64 noundef 16, i1 noundef false) #14
  call void @llvm.lifetime.start.p0(i64 8, ptr nonnull %9) #14
  store ptr null, ptr %9, align 8
  %11 = call i32 @gcry_cipher_open(ptr noundef nonnull %9, i32 noundef 7, i32 noundef 3, i32 noundef 0)
  %12 = load ptr, ptr %9, align 8
  %13 = call i32 @gcry_cipher_setkey(ptr noundef %12, ptr noundef %1, i64 noundef 16)
  %14 = load ptr, ptr %9, align 8
  %15 = call i32 @gcry_cipher_encrypt(ptr noundef %14, ptr noundef %0, i64 noundef 16, ptr noundef nonnull %10, i64 noundef 16)
  %16 = load ptr, ptr %9, align 8
  call void @gcry_cipher_close(ptr noundef %16)
  call void @llvm.lifetime.end.p0(i64 8, ptr nonnull %9) #14
  %17 = lshr i32 %3, 8
  %18 = load i8, ptr %0, align 1
  %19 = trunc i32 %17 to i8
  %20 = xor i8 %18, %19
  store i8 %20, ptr %10, align 16
  %21 = getelementptr i8, ptr %0, i64 1
  %22 = load i8, ptr %21, align 1
  %23 = trunc i32 %3 to i8
  %24 = xor i8 %22, %23
  %25 = getelementptr inbounds nuw i8, ptr %10, i64 1
  store i8 %24, ptr %25, align 1
  %26 = or i32 %5, %3
  %.not55 = icmp eq i32 %26, 0
  br i1 %.not55, label %._crit_edge61, label %.preheader40

.preheader40:                                     ; preds = %7, %._crit_edge
  %.060 = phi i8 [ 0, %._crit_edge ], [ 2, %7 ]
  %.03159 = phi ptr [ %.132.lcssa, %._crit_edge ], [ %2, %7 ]
  %.03358 = phi i32 [ %.134.lcssa, %._crit_edge ], [ %5, %7 ]
  %.03557 = phi ptr [ %.136.lcssa, %._crit_edge ], [ %4, %7 ]
  %.03756 = phi i32 [ %.138.lcssa, %._crit_edge ], [ %3, %7 ]
  %.not62 = icmp eq i32 %.03756, 0
  br i1 %.not62, label %.preheader39, label %.lr.ph.preheader

.lr.ph.preheader:                                 ; preds = %.preheader40
  %27 = zext nneg i8 %.060 to i64
  br label %.lr.ph

.preheader39.loopexit:                            ; preds = %.lr.ph
  %28 = trunc nuw nsw i64 %indvars.iv.next to i8
  br label %.preheader39

.preheader39:                                     ; preds = %.preheader39.loopexit, %.preheader40
  %.138.lcssa = phi i32 [ 0, %.preheader40 ], [ %39, %.preheader39.loopexit ]
  %.132.lcssa = phi ptr [ %.03159, %.preheader40 ], [ %33, %.preheader39.loopexit ]
  %.1.lcssa = phi i8 [ %.060, %.preheader40 ], [ %28, %.preheader39.loopexit ]
  %29 = icmp ne i32 %.03358, 0
  %30 = icmp samesign ult i8 %.1.lcssa, 16
  %31 = select i1 %29, i1 %30, i1 false
  br i1 %31, label %.lr.ph49.preheader, label %.preheader

.lr.ph49.preheader:                               ; preds = %.preheader39
  %32 = zext nneg i8 %.1.lcssa to i64
  br label %.lr.ph49

.lr.ph:                                           ; preds = %.lr.ph.preheader, %.lr.ph
  %indvars.iv = phi i64 [ %27, %.lr.ph.preheader ], [ %indvars.iv.next, %.lr.ph ]
  %.13242 = phi ptr [ %.03159, %.lr.ph.preheader ], [ %33, %.lr.ph ]
  %.13841 = phi i32 [ %.03756, %.lr.ph.preheader ], [ %39, %.lr.ph ]
  %33 = getelementptr i8, ptr %.13242, i64 1
  %34 = load i8, ptr %.13242, align 1
  %35 = getelementptr i8, ptr %0, i64 %indvars.iv
  %36 = load i8, ptr %35, align 1
  %37 = xor i8 %36, %34
  %38 = getelementptr [16 x i8], ptr %10, i64 0, i64 %indvars.iv
  store i8 %37, ptr %38, align 1
  %39 = add i32 %.13841, -1
  %indvars.iv.next = add nuw nsw i64 %indvars.iv, 1
  %40 = icmp ne i32 %39, 0
  %41 = icmp samesign ult i64 %indvars.iv, 15
  %42 = select i1 %40, i1 %41, i1 false
  br i1 %42, label %.lr.ph, label %.preheader39.loopexit, !llvm.loop !6

.preheader.loopexit:                              ; preds = %.lr.ph49
  %43 = trunc nuw nsw i64 %indvars.iv.next70 to i8
  br label %.preheader

.preheader:                                       ; preds = %.preheader.loopexit, %.preheader39
  %.136.lcssa = phi ptr [ %.03557, %.preheader39 ], [ %47, %.preheader.loopexit ]
  %.134.lcssa = phi i32 [ %.03358, %.preheader39 ], [ %53, %.preheader.loopexit ]
  %.2.lcssa = phi i8 [ %.1.lcssa, %.preheader39 ], [ %43, %.preheader.loopexit ]
  %44 = icmp samesign ult i8 %.2.lcssa, 16
  br i1 %44, label %.lr.ph54.preheader, label %._crit_edge

.lr.ph54.preheader:                               ; preds = %.preheader
  %45 = zext nneg i8 %.2.lcssa to i64
  %scevgep = getelementptr i8, ptr %10, i64 %45
  %scevgep72 = getelementptr i8, ptr %0, i64 %45
  %narrow = sub nuw nsw i8 16, %.2.lcssa
  %46 = zext nneg i8 %narrow to i64
  call void @llvm.memcpy.p0.p0.i64(ptr align 1 %scevgep, ptr align 1 %scevgep72, i64 %46, i1 false)
  br label %._crit_edge

.lr.ph49:                                         ; preds = %.lr.ph49.preheader, %.lr.ph49
  %indvars.iv69 = phi i64 [ %32, %.lr.ph49.preheader ], [ %indvars.iv.next70, %.lr.ph49 ]
  %.13447 = phi i32 [ %.03358, %.lr.ph49.preheader ], [ %53, %.lr.ph49 ]
  %.13646 = phi ptr [ %.03557, %.lr.ph49.preheader ], [ %47, %.lr.ph49 ]
  %47 = getelementptr i8, ptr %.13646, i64 1
  %48 = load i8, ptr %.13646, align 1
  %49 = getelementptr i8, ptr %0, i64 %indvars.iv69
  %50 = load i8, ptr %49, align 1
  %51 = xor i8 %50, %48
  %52 = getelementptr [16 x i8], ptr %10, i64 0, i64 %indvars.iv69
  store i8 %51, ptr %52, align 1
  %53 = add i32 %.13447, -1
  %indvars.iv.next70 = add nuw nsw i64 %indvars.iv69, 1
  %54 = icmp ne i32 %53, 0
  %55 = icmp samesign ult i64 %indvars.iv69, 15
  %56 = and i1 %54, %55
  br i1 %56, label %.lr.ph49, label %.preheader.loopexit, !llvm.loop !8

._crit_edge:                                      ; preds = %.lr.ph54.preheader, %.preheader
  call void @llvm.lifetime.start.p0(i64 8, ptr nonnull %8) #14
  store ptr null, ptr %8, align 8
  %57 = call i32 @gcry_cipher_open(ptr noundef nonnull %8, i32 noundef 7, i32 noundef 3, i32 noundef 0)
  %58 = load ptr, ptr %8, align 8
  %59 = call i32 @gcry_cipher_setkey(ptr noundef %58, ptr noundef %1, i64 noundef 16)
  %60 = load ptr, ptr %8, align 8
  %61 = call i32 @gcry_cipher_encrypt(ptr noundef %60, ptr noundef %0, i64 noundef 16, ptr noundef nonnull %10, i64 noundef 16)
  %62 = load ptr, ptr %8, align 8
  call void @gcry_cipher_close(ptr noundef %62)
  call void @llvm.lifetime.end.p0(i64 8, ptr nonnull %8) #14
  %63 = or i32 %.134.lcssa, %.138.lcssa
  %.not = icmp eq i32 %63, 0
  br i1 %.not, label %._crit_edge61, label %.preheader40, !llvm.loop !9

._crit_edge61:                                    ; preds = %._crit_edge, %7
  call void @llvm.lifetime.end.p0(i64 16, ptr nonnull %10) #14
  ret void
}